target datalayout = "e-m:e-p270:32:32-p271:32:32-p272:64:64-i64:64-i128:128-f80:128-n8:16:32:64-S128"
target triple = "x86_64-pc-linux-gnu"

%struct._capture_file = type { ptr, i32, ptr, ptr, i8, i8, i8, i64, i16, i32, i32, i32, ptr, i32, i64, i32, i32, i32, i32, i8, i32, %struct.nstime_t, i32, ptr, ptr, ptr, i8, i8, i32, ptr, i8, i8, i8, i8, i8, i32, i32, i8, ptr, i32, i32, i8, %struct.packet_provider_data, i32, i32, %struct.epan_column_info, ptr, ptr, ptr, %struct.wtap_rec, %struct.Buffer, ptr, i64, i32 }
%struct.nstime_t = type { i64, i32 }
%struct.packet_provider_data = type { ptr, ptr, ptr, ptr, ptr, ptr }
%struct.epan_column_info = type { ptr, i32, ptr, ptr, ptr, %struct.col_expr_t, i8, ptr }
%struct.col_expr_t = type { ptr, ptr }
%struct.wtap_rec = type { i32, i32, i32, %struct.nstime_t, i32, %struct.nstime_t, i8, %union.anon, ptr, i8, %struct.Buffer, %struct.Buffer }
%union.anon = type { %struct.wtap_packet_header }
%struct.wtap_packet_header = type { i32, i32, i32, i32, %union.wtap_pseudo_header }
%union.wtap_pseudo_header = type { %struct.erf_mc_phdr }
%struct.erf_mc_phdr = type { %struct.erf_phdr, [16 x %struct.erf_ehdr], %union.anon.1 }
%struct.erf_phdr = type { i64, i8, i8, i16, i16, i16 }
%struct.erf_ehdr = type { i64 }
%union.anon.1 = type { i32 }
%struct.Buffer = type { ptr, i64, i64, i64 }
%struct._frame_data = type <{ i32, i32, i32, i32, i32, [4 x i8], i64, ptr, ptr, ptr, i8, i16, [5 x i8], %struct.nstime_t, %struct.nstime_t, i32, i32 }>

@.str.35 = private unnamed_addr constant [24 x i8] c"There is no file loaded\00", align 1
@.str.36 = private unnamed_addr constant [30 x i8] c"There is no packet number %u.\00", align 1
@.str.37 = private unnamed_addr constant [34 x i8] c"Packet number %u isn't displayed.\00", align 1
@.str.38 = private unnamed_addr constant [75 x i8] c"Packet number %u isn't displayed, going to the first displayed packet, %u.\00", align 1
@.str.39 = private unnamed_addr constant [74 x i8] c"Packet number %u isn't displayed, going to the next displayed packet, %u.\00", align 1
@.str.40 = private unnamed_addr constant [78 x i8] c"Packet number %u isn't displayed, going to the previous displayed packet, %u.\00", align 1
@.str.41 = private unnamed_addr constant [50 x i8] c"The capture file is probably not fully dissected.\00", align 1
@.str.42 = private unnamed_addr constant [25 x i8] c"End of capture exceeded.\00", align 1

; Function Attrs: null_pointer_is_valid sspstrong uwtable
define hidden zeroext i1 @cf_goto_frame(ptr noundef %0, i32 noundef %1, i1 noundef zeroext %2) #1 {
  %4 = alloca i1, align 1
  %5 = alloca ptr, align 8
  %6 = alloca i32, align 4
  %7 = alloca i8, align 1
  %8 = alloca ptr, align 8
  %9 = alloca i32, align 4
  %10 = alloca i32, align 4
  %11 = alloca ptr, align 8
  %12 = alloca i32, align 4
  %13 = alloca i32, align 4
  %14 = alloca i8, align 1
  %15 = alloca i32, align 4
  store ptr %0, ptr %5, align 8
  store i32 %1, ptr %6, align 4
  %16 = zext i1 %2 to i8
  store i8 %16, ptr %7, align 1
  call void @llvm.lifetime.start.p0(i64 8, ptr %8) #19
  %17 = load ptr, ptr %5, align 8
  %18 = icmp eq ptr %17, null
  br i1 %18, label %25, label %19

19:                                               ; preds = %3
  %20 = load ptr, ptr %5, align 8
  %21 = getelementptr inbounds nuw %struct._capture_file, ptr %20, i32 0, i32 42
  %22 = getelementptr inbounds nuw %struct.packet_provider_data, ptr %21, i32 0, i32 4
  %23 = load ptr, ptr %22, align 8
  %24 = icmp eq ptr %23, null
  br i1 %24, label %25, label %26

25:                                               ; preds = %19, %3
  call void (ptr, ...) @statusbar_push_temporary_msg(ptr noundef @.str.35)
  store i1 false, ptr %4, align 1
  store i32 1, ptr %9, align 4
  br label %150

26:                                               ; preds = %19
  %27 = load ptr, ptr %5, align 8
  %28 = getelementptr inbounds nuw %struct._capture_file, ptr %27, i32 0, i32 42
  %29 = getelementptr inbounds nuw %struct.packet_provider_data, ptr %28, i32 0, i32 4
  %30 = load ptr, ptr %29, align 8
  %31 = load i32, ptr %6, align 4
  %32 = call ptr @frame_data_sequence_find(ptr noundef %30, i32 noundef %31)
  store ptr %32, ptr %8, align 8
  %33 = load ptr, ptr %8, align 8
  %34 = icmp eq ptr %33, null
  br i1 %34, label %35, label %37

35:                                               ; preds = %26
  %36 = load i32, ptr %6, align 4
  call void (ptr, ...) @statusbar_push_temporary_msg(ptr noundef @.str.36, i32 noundef %36)
  store i1 false, ptr %4, align 1
  store i32 1, ptr %9, align 4
  br label %150

37:                                               ; preds = %26
  %38 = load ptr, ptr %8, align 8
  %39 = getelementptr inbounds nuw %struct._frame_data, ptr %38, i32 0, i32 11
  %40 = load i16, ptr %39, align 1
  %41 = and i16 %40, 1
  %42 = zext i16 %41 to i32
  %43 = icmp ne i32 %42, 0
  br i1 %43, label %145, label %44

44:                                               ; preds = %37
  %45 = load ptr, ptr %5, align 8
  %46 = getelementptr inbounds nuw %struct._capture_file, ptr %45, i32 0, i32 43
  %47 = load i32, ptr %46, align 8
  %48 = icmp eq i32 %47, 0
  br i1 %48, label %52, label %49

49:                                               ; preds = %44
  %50 = load i8, ptr %7, align 1, !range !8, !noundef !9
  %51 = trunc i8 %50 to i1
  br i1 %51, label %52, label %54

52:                                               ; preds = %49, %44
  %53 = load i32, ptr %6, align 4
  call void (ptr, ...) @statusbar_push_temporary_msg(ptr noundef @.str.37, i32 noundef %53)
  store i1 false, ptr %4, align 1
  store i32 1, ptr %9, align 4
  br label %150

54:                                               ; preds = %49
  %55 = load ptr, ptr %8, align 8
  %56 = getelementptr inbounds nuw %struct._frame_data, ptr %55, i32 0, i32 16
  %57 = load i32, ptr %56, align 4
  %58 = icmp eq i32 %57, 0
  br i1 %58, label %59, label %64

59:                                               ; preds = %54
  store ptr null, ptr %8, align 8
  %60 = load i32, ptr %6, align 4
  %61 = load ptr, ptr %5, align 8
  %62 = getelementptr inbounds nuw %struct._capture_file, ptr %61, i32 0, i32 43
  %63 = load i32, ptr %62, align 8
  call void (ptr, ...) @statusbar_push_temporary_msg(ptr noundef @.str.38, i32 noundef %60, i32 noundef %63)
  br label %144

64:                                               ; preds = %54
  call void @llvm.lifetime.start.p0(i64 4, ptr %10) #19
  %65 = load i32, ptr %6, align 4
  %66 = load ptr, ptr %8, align 8
  %67 = getelementptr inbounds nuw %struct._frame_data, ptr %66, i32 0, i32 16
  %68 = load i32, ptr %67, align 4
  %69 = sub i32 %65, %68
  store i32 %69, ptr %10, align 4
  call void @llvm.lifetime.start.p0(i64 8, ptr %11) #19
  call void @llvm.lifetime.start.p0(i64 4, ptr %12) #19
  %70 = load i32, ptr %6, align 4
  %71 = add i32 %70, 1
  store i32 %71, ptr %12, align 4
  call void @llvm.lifetime.start.p0(i64 4, ptr %13) #19
  %72 = load i32, ptr %6, align 4
  %73 = load i32, ptr %10, align 4
  %74 = add i32 %72, %73
  %75 = sub i32 %74, 1
  store i32 %75, ptr %13, align 4
  call void @llvm.lifetime.start.p0(i64 1, ptr %14) #19
  store i8 0, ptr %14, align 1
  br label %76

76:                                               ; preds = %120, %118, %64
  %77 = load i32, ptr %12, align 4
  %78 = load i32, ptr %13, align 4
  %79 = icmp ule i32 %77, %78
  br i1 %79, label %80, label %121

80:                                               ; preds = %76
  call void @llvm.lifetime.start.p0(i64 4, ptr %15) #19
  %81 = load i32, ptr %12, align 4
  %82 = load i32, ptr %13, align 4
  %83 = add i32 %81, %82
  %84 = udiv i32 %83, 2
  store i32 %84, ptr %15, align 4
  %85 = load ptr, ptr %5, align 8
  %86 = getelementptr inbounds nuw %struct._capture_file, ptr %85, i32 0, i32 42
  %87 = getelementptr inbounds nuw %struct.packet_provider_data, ptr %86, i32 0, i32 4
  %88 = load ptr, ptr %87, align 8
  %89 = load i32, ptr %15, align 4
  %90 = call ptr @frame_data_sequence_find(ptr noundef %88, i32 noundef %89)
  store ptr %90, ptr %11, align 8
  %91 = load ptr, ptr %11, align 8
  %92 = icmp eq ptr %91, null
  br i1 %92, label %93, label %96

93:                                               ; preds = %80
  %94 = load i32, ptr %15, align 4
  %95 = sub i32 %94, 1
  store i32 %95, ptr %13, align 4
  store i32 2, ptr %9, align 4
  br label %118, !llvm.loop !52

96:                                               ; preds = %80
  %97 = load ptr, ptr %11, align 8
  %98 = getelementptr inbounds nuw %struct._frame_data, ptr %97, i32 0, i32 16
  %99 = load i32, ptr %98, align 4
  %100 = load i32, ptr %6, align 4
  %101 = icmp ugt i32 %99, %100
  br i1 %101, label %102, label %106

102:                                              ; preds = %96
  %103 = load ptr, ptr %11, align 8
  %104 = getelementptr inbounds nuw %struct._frame_data, ptr %103, i32 0, i32 16
  %105 = load i32, ptr %104, align 4
  store i32 %105, ptr %13, align 4
  br label %117

106:                                              ; preds = %96
  %107 = load ptr, ptr %11, align 8
  %108 = getelementptr inbounds nuw %struct._frame_data, ptr %107, i32 0, i32 11
  %109 = load i16, ptr %108, align 1
  %110 = and i16 %109, 1
  %111 = zext i16 %110 to i32
  %112 = icmp ne i32 %111, 0
  br i1 %112, label %113, label %114

113:                                              ; preds = %106
  store i8 1, ptr %14, align 1
  store i32 3, ptr %9, align 4
  br label %118

114:                                              ; preds = %106
  %115 = load i32, ptr %15, align 4
  %116 = add i32 %115, 1
  store i32 %116, ptr %12, align 4
  br label %117

117:                                              ; preds = %114, %102
  store i32 0, ptr %9, align 4
  br label %118

118:                                              ; preds = %117, %113, %93
  call void @llvm.lifetime.end.p0(i64 4, ptr %15) #19
  %119 = load i32, ptr %9, align 4
  switch i32 %119, label %152 [
    i32 0, label %120
    i32 2, label %76
    i32 3, label %121
  ]

120:                                              ; preds = %118
  br label %76, !llvm.loop !52

121:                                              ; preds = %118, %76
  %122 = load i8, ptr %14, align 1, !range !8, !noundef !9
  %123 = trunc i8 %122 to i1
  br i1 %123, label %124, label %130

124:                                              ; preds = %121
  %125 = load ptr, ptr %11, align 8
  store ptr %125, ptr %8, align 8
  %126 = load i32, ptr %6, align 4
  %127 = load ptr, ptr %8, align 8
  %128 = getelementptr inbounds nuw %struct._frame_data, ptr %127, i32 0, i32 0
  %129 = load i32, ptr %128, align 8
  call void (ptr, ...) @statusbar_push_temporary_msg(ptr noundef @.str.39, i32 noundef %126, i32 noundef %129)
  br label %143

130:                                              ; preds = %121
  %131 = load i32, ptr %6, align 4
  %132 = load ptr, ptr %8, align 8
  %133 = getelementptr inbounds nuw %struct._frame_data, ptr %132, i32 0, i32 16
  %134 = load i32, ptr %133, align 4
  call void (ptr, ...) @statusbar_push_temporary_msg(ptr noundef @.str.40, i32 noundef %131, i32 noundef %134)
  %135 = load ptr, ptr %5, align 8
  %136 = getelementptr inbounds nuw %struct._capture_file, ptr %135, i32 0, i32 42
  %137 = getelementptr inbounds nuw %struct.packet_provider_data, ptr %136, i32 0, i32 4
  %138 = load ptr, ptr %137, align 8
  %139 = load ptr, ptr %8, align 8
  %140 = getelementptr inbounds nuw %struct._frame_data, ptr %139, i32 0, i32 16
  %141 = load i32, ptr %140, align 4
  %142 = call ptr @frame_data_sequence_find(ptr noundef %138, i32 noundef %141)
  store ptr %142, ptr %8, align 8
  br label %143

143:                                              ; preds = %130, %124
  call void @llvm.lifetime.end.p0(i64 1, ptr %14) #19
  call void @llvm.lifetime.end.p0(i64 4, ptr %13) #19
  call void @llvm.lifetime.end.p0(i64 4, ptr %12) #19
  call void @llvm.lifetime.end.p0(i64 8, ptr %11) #19
  call void @llvm.lifetime.end.p0(i64 4, ptr %10) #19
  br label %144

144:                                              ; preds = %143, %59
  br label %145

145:                                              ; preds = %144, %37
  %146 = load ptr, ptr %8, align 8
  %147 = call zeroext i1 @packet_list_select_row_from_data(ptr noundef %146)
  br i1 %147, label %149, label %148

148:                                              ; preds = %145
  call void (i32, ptr, ptr, ptr, ...) @simple_message_box(i32 noundef 0, ptr noundef null, ptr noundef @.str.41, ptr noundef @.str.42)
  store i1 false, ptr %4, align 1
  store i32 1, ptr %9, align 4
  br label %150

149:                                              ; preds = %145
  store i1 true, ptr %4, align 1
  store i32 1, ptr %9, align 4
  br label %150

150:                                              ; preds = %149, %148, %52, %35, %25
  call void @llvm.lifetime.end.p0(i64 8, ptr %8) #19
  %151 = load i1, ptr %4, align 1
  ret i1 %151

152:                                              ; preds = %118
  unreachable
}