; Function Attrs: null_pointer_is_valid sspstrong uwtable
define hidden noundef zeroext i1 @cf_goto_frame(ptr noundef readonly captures(address_is_null) %0, i32 noundef %1, i1 noundef zeroext %2) local_unnamed_addr #1 {
  %4 = icmp eq ptr %0, null
  br i1 %4, label %9, label %5

5:                                                ; preds = %3
  %6 = getelementptr inbounds nuw i8, ptr %0, i64 256
  %7 = load ptr, ptr %6, align 8
  %8 = icmp eq ptr %7, null
  br i1 %8, label %9, label %10

9:                                                ; preds = %5, %3
  tail call void (ptr, ...) @statusbar_push_temporary_msg(ptr noundef nonnull @.str.35)
  br label %58

10:                                               ; preds = %5
  %11 = tail call ptr @frame_data_sequence_find(ptr noundef nonnull %7, i32 noundef %1)
  %12 = icmp eq ptr %11, null
  br i1 %12, label %13, label %14

13:                                               ; preds = %10
  tail call void (ptr, ...) @statusbar_push_temporary_msg(ptr noundef nonnull @.str.36, i32 noundef %1)
  br label %58

14:                                               ; preds = %10
  %15 = getelementptr inbounds nuw i8, ptr %11, i64 57
  %16 = load i16, ptr %15, align 1
  %17 = and i16 %16, 1
  %.not = icmp eq i16 %17, 0
  br i1 %.not, label %18, label %55

18:                                               ; preds = %14
  %19 = getelementptr inbounds nuw i8, ptr %0, i64 272
  %20 = load i32, ptr %19, align 8
  %21 = icmp eq i32 %20, 0
  %brmerge = or i1 %2, %21
  br i1 %brmerge, label %22, label %23

22:                                               ; preds = %18
  tail call void (ptr, ...) @statusbar_push_temporary_msg(ptr noundef nonnull @.str.37, i32 noundef %1)
  br label %58

23:                                               ; preds = %18
  %24 = getelementptr inbounds nuw i8, ptr %11, i64 100
  %25 = load i32, ptr %24, align 4
  %26 = icmp eq i32 %25, 0
  br i1 %26, label %27, label %28

27:                                               ; preds = %23
  tail call void (ptr, ...) @statusbar_push_temporary_msg(ptr noundef nonnull @.str.38, i32 noundef %1, i32 noundef %20)
  br label %55

28:                                               ; preds = %23
  %29 = add i32 %1, 1
  %factor = shl i32 %1, 1
  %30 = xor i32 %25, -1
  %31 = add i32 %factor, %30
  %.not6072 = icmp ugt i32 %29, %31
  br i1 %.not6072, label %._crit_edge, label %.lr.ph

.lr.ph:                                           ; preds = %28, %49
  %.04274 = phi i32 [ %.143, %49 ], [ %31, %28 ]
  %.04573 = phi i32 [ %.146, %49 ], [ %29, %28 ]
  %32 = add i32 %.04274, %.04573
  %33 = lshr i32 %32, 1
  %34 = load ptr, ptr %6, align 8
  %35 = tail call ptr @frame_data_sequence_find(ptr noundef %34, i32 noundef %33)
  %36 = icmp eq ptr %35, null
  br i1 %36, label %37, label %39

37:                                               ; preds = %.lr.ph
  %38 = add nsw i32 %33, -1
  br label %49, !llvm.loop !53

39:                                               ; preds = %.lr.ph
  %40 = getelementptr inbounds nuw i8, ptr %35, i64 100
  %41 = load i32, ptr %40, align 4
  %42 = icmp ugt i32 %41, %1
  br i1 %42, label %49, label %43

43:                                               ; preds = %39
  %44 = getelementptr inbounds nuw i8, ptr %35, i64 57
  %45 = load i16, ptr %44, align 1
  %46 = and i16 %45, 1
  %.not61 = icmp eq i16 %46, 0
  br i1 %.not61, label %47, label %.thread68

47:                                               ; preds = %43
  %48 = add nuw i32 %33, 1
  br label %49

49:                                               ; preds = %47, %39, %37
  %.146 = phi i32 [ %.04573, %37 ], [ %48, %47 ], [ %.04573, %39 ]
  %.143 = phi i32 [ %38, %37 ], [ %.04274, %47 ], [ %41, %39 ]
  %.not60 = icmp ugt i32 %.146, %.143
  br i1 %.not60, label %._crit_edge.loopexit, label %.lr.ph

.thread68:                                        ; preds = %43
  %50 = load i32, ptr %35, align 8
  tail call void (ptr, ...) @statusbar_push_temporary_msg(ptr noundef nonnull @.str.39, i32 noundef %1, i32 noundef %50)
  br label %55

._crit_edge.loopexit:                             ; preds = %49
  %.pre = load i32, ptr %24, align 4
  br label %._crit_edge

._crit_edge:                                      ; preds = %._crit_edge.loopexit, %28
  %51 = phi i32 [ %.pre, %._crit_edge.loopexit ], [ %25, %28 ]
  tail call void (ptr, ...) @statusbar_push_temporary_msg(ptr noundef nonnull @.str.40, i32 noundef %1, i32 noundef %51)
  %52 = load ptr, ptr %6, align 8
  %53 = load i32, ptr %24, align 4
  %54 = tail call ptr @frame_data_sequence_find(ptr noundef %52, i32 noundef %53)
  br label %55

55:                                               ; preds = %.thread68, %._crit_edge, %27, %14
  %.050 = phi ptr [ %11, %14 ], [ null, %27 ], [ %35, %.thread68 ], [ %54, %._crit_edge ]
  %56 = tail call zeroext i1 @packet_list_select_row_from_data(ptr noundef %.050)
  br i1 %56, label %58, label %57

57:                                               ; preds = %55
  tail call void (i32, ptr, ptr, ptr, ...) @simple_message_box(i32 noundef 0, ptr noundef null, ptr noundef nonnull @.str.41, ptr noundef nonnull @.str.42)
  br label %58

58:                                               ; preds = %55, %57, %22, %13, %9
  %.0 = phi i1 [ false, %9 ], [ false, %13 ], [ false, %57 ], [ false, %22 ], [ true, %55 ]
  ret i1 %.0
}